; Function Attrs: mustprogress nofree norecurse nosync nounwind willreturn memory(read, inaccessiblemem: none) uwtable
define noundef i32 @_ZNK5draco10PointCloud19GetNamedAttributeIdENS_17GeometryAttribute4TypeEi(ptr nocapture noundef nonnull readonly align 8 dereferenceable(164) %0, i32 noundef %1, i32 noundef %2) local_unnamed_addr #5 align 2 {
  %4 = icmp eq i32 %1, -1
  %5 = icmp sgt i32 %1, 4
  %or.cond.i = or i1 %4, %5
  br i1 %or.cond.i, label %_ZNK5draco10PointCloud18NumNamedAttributesENS_17GeometryAttribute4TypeE.exit, label %6

6:                                                ; preds = %3
  %7 = getelementptr inbounds i8, ptr %0, i64 40
  %8 = sext i32 %1 to i64
  %9 = getelementptr inbounds [5 x %"class.std::vector.2"], ptr %7, i64 0, i64 %8
  %10 = getelementptr inbounds i8, ptr %9, i64 8
  %11 = load ptr, ptr %10, align 8
  %12 = load ptr, ptr %9, align 8
  %13 = ptrtoint ptr %11 to i64
  %14 = ptrtoint ptr %12 to i64
  %15 = sub i64 %13, %14
  %16 = lshr exact i64 %15, 2
  %17 = trunc i64 %16 to i32
  br label %_ZNK5draco10PointCloud18NumNamedAttributesENS_17GeometryAttribute4TypeE.exit

_ZNK5draco10PointCloud18NumNamedAttributesENS_17GeometryAttribute4TypeE.exit: ; preds = %3, %6
  %.0.i = phi i32 [ %17, %6 ], [ 0, %3 ]
  %.not = icmp sgt i32 %.0.i, %2
  br i1 %.not, label %18, label %26

18:                                               ; preds = %_ZNK5draco10PointCloud18NumNamedAttributesENS_17GeometryAttribute4TypeE.exit
  %19 = getelementptr inbounds i8, ptr %0, i64 40
  %20 = sext i32 %1 to i64
  %21 = getelementptr inbounds [5 x %"class.std::vector.2"], ptr %19, i64 0, i64 %20
  %22 = sext i32 %2 to i64
  %23 = load ptr, ptr %21, align 8
  %24 = getelementptr inbounds i32, ptr %23, i64 %22
  %25 = load i32, ptr %24, align 4
  br label %26

26:                                               ; preds = %_ZNK5draco10PointCloud18NumNamedAttributesENS_17GeometryAttribute4TypeE.exit, %18
  %.0 = phi i32 [ %25, %18 ], [ -1, %_ZNK5draco10PointCloud18NumNamedAttributesENS_17GeometryAttribute4TypeE.exit ]
  ret i32 %.0
}